target datalayout = "e-m:e-p270:32:32-p271:32:32-p272:64:64-i64:64-i128:128-f80:128-n8:16:32:64-S128"
target triple = "x86_64-pc-linux-gnu"

%struct.Vec_Int_t_ = type { i32, i32, ptr }
%struct.Gia_Man_t_ = type { ptr, ptr, i32, i32, i32, i32, ptr, ptr, i32, i32, i32, ptr, ptr, %struct.Vec_Int_t_, %struct.Vec_Int_t_, i32, i32, i32, %struct.Vec_Int_t_, ptr, ptr, ptr, i32, i32, i32, i32, ptr, ptr, ptr, ptr, ptr, i32, i32, ptr, i32, ptr, ptr, ptr, ptr, ptr, ptr, ptr, ptr, ptr, ptr, ptr, ptr, ptr, ptr, ptr, ptr, ptr, ptr, %struct.Vec_Int_t_, %struct.Vec_Int_t_, ptr, ptr, ptr, ptr, ptr, ptr, ptr, ptr, ptr, ptr, ptr, ptr, ptr, ptr, ptr, ptr, ptr, ptr, ptr, ptr, ptr, i32, float, float, ptr, ptr, i32, ptr, ptr, ptr, ptr, ptr, ptr, ptr, ptr, ptr, ptr, ptr, ptr, ptr, ptr, ptr, i64, i64, ptr, ptr, i32, i32, i32, i32, i32, i32, i32, i32, i32, i32, i32, i32, ptr, ptr, ptr, ptr, ptr, ptr, ptr, ptr, i32, i32, i32, ptr, i32, i32, ptr, ptr, ptr, ptr, ptr, ptr, i32, i32, ptr, %struct.Vec_Int_t_, %struct.Vec_Int_t_, %struct.Vec_Int_t_, ptr, ptr, ptr, i32, i32, i32, i32, ptr, ptr, ptr, ptr, ptr }
%struct.Gia_Rpr_t_ = type { i32 }

; Function Attrs: inlinehint nounwind uwtable
define internal void @Gia_ObjSetNext(ptr noundef %0, i32 noundef %1, i32 noundef %2) #1 {
  %4 = alloca ptr, align 8
  %5 = alloca i32, align 4
  %6 = alloca i32, align 4
  store ptr %0, ptr %4, align 8, !tbaa !20
  store i32 %1, ptr %5, align 4, !tbaa !30
  store i32 %2, ptr %6, align 4, !tbaa !30
  %7 = load i32, ptr %6, align 4, !tbaa !30
  %8 = load ptr, ptr %4, align 8, !tbaa !20
  %9 = getelementptr inbounds nuw %struct.Gia_Man_t_, ptr %8, i32 0, i32 28
  %10 = load ptr, ptr %9, align 8, !tbaa !66
  %11 = load i32, ptr %5, align 4, !tbaa !30
  %12 = sext i32 %11 to i64
  %13 = getelementptr inbounds i32, ptr %10, i64 %12
  store i32 %7, ptr %13, align 4, !tbaa !30
  ret void
}

; Function Attrs: inlinehint nounwind uwtable
define internal void @Gia_ObjSetRepr(ptr noundef %0, i32 noundef %1, i32 noundef %2) #1 {
  %4 = alloca ptr, align 8
  %5 = alloca i32, align 4
  %6 = alloca i32, align 4
  store ptr %0, ptr %4, align 8, !tbaa !20
  store i32 %1, ptr %5, align 4, !tbaa !30
  store i32 %2, ptr %6, align 4, !tbaa !30
  %7 = load i32, ptr %6, align 4, !tbaa !30
  %8 = load ptr, ptr %4, align 8, !tbaa !20
  %9 = getelementptr inbounds nuw %struct.Gia_Man_t_, ptr %8, i32 0, i32 27
  %10 = load ptr, ptr %9, align 8, !tbaa !65
  %11 = load i32, ptr %5, align 4, !tbaa !30
  %12 = sext i32 %11 to i64
  %13 = getelementptr inbounds %struct.Gia_Rpr_t_, ptr %10, i64 %12
  %14 = load i32, ptr %13, align 4
  %15 = and i32 %7, 268435455
  %16 = and i32 %14, -268435456
  %17 = or i32 %16, %15
  store i32 %17, ptr %13, align 4
  ret void
}

; Function Attrs: inlinehint nounwind uwtable
define internal i32 @Vec_IntEntry(ptr noundef %0, i32 noundef %1) #1 {
  %3 = alloca ptr, align 8
  %4 = alloca i32, align 4
  store ptr %0, ptr %3, align 8, !tbaa !17
  store i32 %1, ptr %4, align 4, !tbaa !30
  %5 = load ptr, ptr %3, align 8, !tbaa !17
  %6 = getelementptr inbounds nuw %struct.Vec_Int_t_, ptr %5, i32 0, i32 2
  %7 = load ptr, ptr %6, align 8, !tbaa !18
  %8 = load i32, ptr %4, align 4, !tbaa !30
  %9 = sext i32 %8 to i64
  %10 = getelementptr inbounds i32, ptr %7, i64 %9
  %11 = load i32, ptr %10, align 4, !tbaa !30
  ret i32 %11
}

; Function Attrs: inlinehint nounwind uwtable
define internal i32 @Vec_IntSize(ptr noundef %0) #1 {
  %2 = alloca ptr, align 8
  store ptr %0, ptr %2, align 8, !tbaa !17
  %3 = load ptr, ptr %2, align 8, !tbaa !17
  %4 = getelementptr inbounds nuw %struct.Vec_Int_t_, ptr %3, i32 0, i32 1
  %5 = load i32, ptr %4, align 4, !tbaa !56
  ret i32 %5
}

; Function Attrs: nounwind uwtable
define void @Gia_Sim2ClassCreate(ptr noundef %0, ptr noundef %1) #0 {
  %3 = alloca ptr, align 8
  %4 = alloca ptr, align 8
  %5 = alloca i32, align 4
  %6 = alloca i32, align 4
  %7 = alloca i32, align 4
  %8 = alloca i32, align 4
  store ptr %0, ptr %3, align 8, !tbaa !20
  store ptr %1, ptr %4, align 8, !tbaa !17
  call void @llvm.lifetime.start.p0(i64 4, ptr %5) #11
  store i32 268435455, ptr %5, align 4, !tbaa !30
  call void @llvm.lifetime.start.p0(i64 4, ptr %6) #11
  store i32 -1, ptr %6, align 4, !tbaa !30
  call void @llvm.lifetime.start.p0(i64 4, ptr %7) #11
  call void @llvm.lifetime.start.p0(i64 4, ptr %8) #11
  store i32 0, ptr %8, align 4, !tbaa !30
  br label %9

9:                                                ; preds = %37, %2
  %10 = load i32, ptr %8, align 4, !tbaa !30
  %11 = load ptr, ptr %4, align 8, !tbaa !17
  %12 = call i32 @Vec_IntSize(ptr noundef %11)
  %13 = icmp slt i32 %10, %12
  br i1 %13, label %14, label %18

14:                                               ; preds = %9
  %15 = load ptr, ptr %4, align 8, !tbaa !17
  %16 = load i32, ptr %8, align 4, !tbaa !30
  %17 = call i32 @Vec_IntEntry(ptr noundef %15, i32 noundef %16)
  store i32 %17, ptr %7, align 4, !tbaa !30
  br label %18

18:                                               ; preds = %14, %9
  %19 = phi i1 [ false, %9 ], [ true, %14 ]
  br i1 %19, label %20, label %40

20:                                               ; preds = %18
  %21 = load i32, ptr %8, align 4, !tbaa !30
  %22 = icmp eq i32 %21, 0
  br i1 %22, label %23, label %28

23:                                               ; preds = %20
  %24 = load i32, ptr %7, align 4, !tbaa !30
  store i32 %24, ptr %5, align 4, !tbaa !30
  %25 = load ptr, ptr %3, align 8, !tbaa !20
  %26 = load i32, ptr %7, align 4, !tbaa !30
  call void @Gia_ObjSetRepr(ptr noundef %25, i32 noundef %26, i32 noundef 268435455)
  %27 = load i32, ptr %7, align 4, !tbaa !30
  store i32 %27, ptr %6, align 4, !tbaa !30
  br label %36

28:                                               ; preds = %20
  %29 = load ptr, ptr %3, align 8, !tbaa !20
  %30 = load i32, ptr %7, align 4, !tbaa !30
  %31 = load i32, ptr %5, align 4, !tbaa !30
  call void @Gia_ObjSetRepr(ptr noundef %29, i32 noundef %30, i32 noundef %31)
  %32 = load ptr, ptr %3, align 8, !tbaa !20
  %33 = load i32, ptr %6, align 4, !tbaa !30
  %34 = load i32, ptr %7, align 4, !tbaa !30
  call void @Gia_ObjSetNext(ptr noundef %32, i32 noundef %33, i32 noundef %34)
  %35 = load i32, ptr %7, align 4, !tbaa !30
  store i32 %35, ptr %6, align 4, !tbaa !30
  br label %36

36:                                               ; preds = %28, %23
  br label %37

37:                                               ; preds = %36
  %38 = load i32, ptr %8, align 4, !tbaa !30
  %39 = add nsw i32 %38, 1
  store i32 %39, ptr %8, align 4, !tbaa !30
  br label %9, !llvm.loop !64

40:                                               ; preds = %18
  %41 = load ptr, ptr %3, align 8, !tbaa !20
  %42 = load i32, ptr %6, align 4, !tbaa !30
  call void @Gia_ObjSetNext(ptr noundef %41, i32 noundef %42, i32 noundef 0)
  call void @llvm.lifetime.end.p0(i64 4, ptr %8) #11
  call void @llvm.lifetime.end.p0(i64 4, ptr %7) #11
  call void @llvm.lifetime.end.p0(i64 4, ptr %6) #11
  call void @llvm.lifetime.end.p0(i64 4, ptr %5) #11
  ret void
}