; Function Attrs: nofree norecurse nosync nounwind memory(readwrite, inaccessiblemem: none) uwtable
define void @Gia_Sim2ClassCreate(ptr noundef readonly captures(none) %0, ptr noundef readonly captures(none) %1) local_unnamed_addr #9 {
  %3 = getelementptr i8, ptr %1, i64 4
  %.val26 = load i32, ptr %3, align 4, !tbaa !38
  %4 = icmp sgt i32 %.val26, 0
  br i1 %4, label %.lr.ph, label %.critedge

.lr.ph:                                           ; preds = %2
  %5 = getelementptr i8, ptr %1, i64 8
  %6 = getelementptr i8, ptr %0, i64 192
  %7 = getelementptr i8, ptr %0, i64 200
  br label %8

8:                                                ; preds = %.lr.ph, %23
  %indvars.iv = phi i64 [ 0, %.lr.ph ], [ %indvars.iv.next, %23 ]
  %.01828 = phi i32 [ 268435455, %.lr.ph ], [ %.1, %23 ]
  %.01927 = phi i32 [ -1, %.lr.ph ], [ %10, %23 ]
  %.val21 = load ptr, ptr %5, align 8, !tbaa !8
  %9 = getelementptr inbounds nuw i32, ptr %.val21, i64 %indvars.iv
  %10 = load i32, ptr %9, align 4, !tbaa !48
  %11 = icmp eq i64 %indvars.iv, 0
  %.val22 = load ptr, ptr %6, align 8, !tbaa !58
  %12 = sext i32 %10 to i64
  %13 = getelementptr inbounds %struct.Gia_Rpr_t_, ptr %.val22, i64 %12
  %14 = load i32, ptr %13, align 4
  br i1 %11, label %15, label %17

15:                                               ; preds = %8
  %16 = or i32 %14, 268435455
  store i32 %16, ptr %13, align 4
  br label %23

17:                                               ; preds = %8
  %18 = and i32 %.01828, 268435455
  %19 = and i32 %14, -268435456
  %20 = or disjoint i32 %19, %18
  store i32 %20, ptr %13, align 4
  %.val24 = load ptr, ptr %7, align 8, !tbaa !59
  %21 = sext i32 %.01927 to i64
  %22 = getelementptr inbounds i32, ptr %.val24, i64 %21
  store i32 %10, ptr %22, align 4, !tbaa !48
  br label %23

23:                                               ; preds = %15, %17
  %.1 = phi i32 [ %10, %15 ], [ %.01828, %17 ]
  %indvars.iv.next = add nuw nsw i64 %indvars.iv, 1
  %.val = load i32, ptr %3, align 4, !tbaa !38
  %24 = sext i32 %.val to i64
  %25 = icmp slt i64 %indvars.iv.next, %24
  br i1 %25, label %8, label %.critedge.loopexit, !llvm.loop !60

.critedge.loopexit:                               ; preds = %23
  %26 = sext i32 %10 to i64
  br label %.critedge

.critedge:                                        ; preds = %.critedge.loopexit, %2
  %.019.lcssa = phi i64 [ -1, %2 ], [ %26, %.critedge.loopexit ]
  %27 = getelementptr i8, ptr %0, i64 200
  %.val25 = load ptr, ptr %27, align 8, !tbaa !59
  %28 = getelementptr inbounds i32, ptr %.val25, i64 %.019.lcssa
  store i32 0, ptr %28, align 4, !tbaa !48
  ret void
}